; Function Attrs: mustprogress nofree norecurse nosync nounwind willreturn memory(read, inaccessiblemem: none) uwtable
define dso_local noundef ptr @_ZN5clang8consumed17ConsumedBlockInfo10borrowInfoEPKNS_8CFGBlockE(ptr noundef nonnull readonly align 8 captures(none) dereferenceable(48) %0, ptr noundef readonly captures(none) %1) local_unnamed_addr #3 align 2 {
  %3 = getelementptr inbounds nuw i8, ptr %1, i64 48
  %4 = load i32, ptr %3, align 8
  %5 = zext i32 %4 to i64
  %6 = load ptr, ptr %0, align 8
  %7 = getelementptr inbounds nuw %"class.std::unique_ptr", ptr %6, i64 %5
  %8 = load ptr, ptr %7, align 8
  ret ptr %8
}